target datalayout = "e-m:e-p270:32:32-p271:32:32-p272:64:64-i64:64-i128:128-f80:128-n8:16:32:64-S128"
target triple = "x86_64-pc-linux-gnu"

%struct.PyVarObject = type { %struct._object, i64 }
%struct._object = type { %union.anon, ptr }
%union.anon = type { i64 }
%struct.anon = type { i32, i32 }

@_Py_NoneStruct = external global %struct._object, align 8

; Function Attrs: inlinehint nounwind uwtable
define internal ptr @_Py_TYPE(ptr noundef %0) #3 {
  %2 = alloca ptr, align 8
  store ptr %0, ptr %2, align 8, !tbaa !42
  %3 = load ptr, ptr %2, align 8, !tbaa !42
  %4 = getelementptr inbounds nuw %struct._object, ptr %3, i32 0, i32 1
  %5 = load ptr, ptr %4, align 8, !tbaa !68
  ret ptr %5
}

; Function Attrs: alwaysinline nounwind uwtable
define internal void @Py_INCREF(ptr noundef %0) #4 {
  %2 = alloca ptr, align 8
  %3 = alloca i32, align 4
  %4 = alloca i32, align 4
  store ptr %0, ptr %2, align 8, !tbaa !42
  call void @llvm.lifetime.start.p0(i64 4, ptr %3) #7
  %5 = load ptr, ptr %2, align 8, !tbaa !42
  %6 = getelementptr inbounds nuw %struct._object, ptr %5, i32 0, i32 0
  %7 = getelementptr inbounds nuw %struct.anon, ptr %6, i32 0, i32 0
  %8 = load i32, ptr %7, align 8, !tbaa !74
  store i32 %8, ptr %3, align 4, !tbaa !43
  %9 = load i32, ptr %3, align 4, !tbaa !43
  %10 = icmp slt i32 %9, 0
  br i1 %10, label %11, label %12

11:                                               ; preds = %1
  store i32 1, ptr %4, align 4
  br label %18

12:                                               ; preds = %1
  %13 = load i32, ptr %3, align 4, !tbaa !43
  %14 = add i32 %13, 1
  %15 = load ptr, ptr %2, align 8, !tbaa !42
  %16 = getelementptr inbounds nuw %struct._object, ptr %15, i32 0, i32 0
  %17 = getelementptr inbounds nuw %struct.anon, ptr %16, i32 0, i32 0
  store i32 %14, ptr %17, align 8, !tbaa !74
  store i32 0, ptr %4, align 4
  br label %18

18:                                               ; preds = %12, %11
  call void @llvm.lifetime.end.p0(i64 4, ptr %3) #7
  %19 = load i32, ptr %4, align 4
  switch i32 %19, label %21 [
    i32 0, label %20
    i32 1, label %20
  ]

20:                                               ; preds = %18, %18
  ret void

21:                                               ; preds = %18
  unreachable
}

; Function Attrs: inlinehint nounwind uwtable
define internal ptr @_Py_NewRef(ptr noundef %0) #3 {
  %2 = alloca ptr, align 8
  store ptr %0, ptr %2, align 8, !tbaa !42
  %3 = load ptr, ptr %2, align 8, !tbaa !42
  call void @Py_INCREF(ptr noundef %3)
  %4 = load ptr, ptr %2, align 8, !tbaa !42
  ret ptr %4
}

; Function Attrs: nounwind uwtable
define dso_local i32 @PyODict_SetItem(ptr noundef %0, ptr noundef %1, ptr noundef %2) #0 {
  %4 = alloca i32, align 4
  %5 = alloca ptr, align 8
  %6 = alloca ptr, align 8
  %7 = alloca ptr, align 8
  %8 = alloca i64, align 8
  %9 = alloca i32, align 4
  store ptr %0, ptr %5, align 8, !tbaa !42
  store ptr %1, ptr %6, align 8, !tbaa !42
  store ptr %2, ptr %7, align 8, !tbaa !42
  call void @llvm.lifetime.start.p0(i64 8, ptr %8) #7
  %10 = load ptr, ptr %6, align 8, !tbaa !42
  %11 = call i64 @PyObject_Hash(ptr noundef %10)
  store i64 %11, ptr %8, align 8, !tbaa !55
  %12 = load i64, ptr %8, align 8, !tbaa !55
  %13 = icmp eq i64 %12, -1
  br i1 %13, label %14, label %15

14:                                               ; preds = %3
  store i32 -1, ptr %4, align 4
  store i32 1, ptr %9, align 4
  br label %21

15:                                               ; preds = %3
  %16 = load ptr, ptr %5, align 8, !tbaa !42
  %17 = load ptr, ptr %6, align 8, !tbaa !42
  %18 = load ptr, ptr %7, align 8, !tbaa !42
  %19 = load i64, ptr %8, align 8, !tbaa !55
  %20 = call i32 @_PyODict_SetItem_KnownHash(ptr noundef %16, ptr noundef %17, ptr noundef %18, i64 noundef %19)
  store i32 %20, ptr %4, align 4
  store i32 1, ptr %9, align 4
  br label %21

21:                                               ; preds = %15, %14
  call void @llvm.lifetime.end.p0(i64 8, ptr %8) #7
  %22 = load i32, ptr %4, align 4
  ret i32 %22
}

; Function Attrs: inlinehint nounwind uwtable
define internal i32 @Py_IS_TYPE(ptr noundef %0, ptr noundef %1) #3 {
  %3 = alloca ptr, align 8
  %4 = alloca ptr, align 8
  store ptr %0, ptr %3, align 8, !tbaa !42
  store ptr %1, ptr %4, align 8, !tbaa !76
  %5 = load ptr, ptr %3, align 8, !tbaa !42
  %6 = call ptr @_Py_TYPE(ptr noundef %5)
  %7 = load ptr, ptr %4, align 8, !tbaa !76
  %8 = icmp eq ptr %6, %7
  %9 = zext i1 %8 to i32
  ret i32 %9
}

; Function Attrs: inlinehint nounwind uwtable
define internal i64 @Py_SIZE(ptr noundef %0) #3 {
  %2 = alloca ptr, align 8
  store ptr %0, ptr %2, align 8, !tbaa !42
  %3 = load ptr, ptr %2, align 8, !tbaa !42
  %4 = getelementptr inbounds nuw %struct.PyVarObject, ptr %3, i32 0, i32 1
  %5 = load i64, ptr %4, align 8, !tbaa !159
  ret i64 %5
}

; Function Attrs: nounwind uwtable
define internal ptr @OrderedDict_setdefault_impl(ptr noundef %0, ptr noundef %1, ptr noundef %2) #0 {
  %4 = alloca ptr, align 8
  %5 = alloca ptr, align 8
  %6 = alloca ptr, align 8
  %7 = alloca ptr, align 8
  %8 = alloca ptr, align 8
  %9 = alloca i32, align 4
  %10 = alloca i32, align 4
  store ptr %0, ptr %5, align 8, !tbaa !4
  store ptr %1, ptr %6, align 8, !tbaa !42
  store ptr %2, ptr %7, align 8, !tbaa !42
  call void @llvm.lifetime.start.p0(i64 8, ptr %8) #7
  store ptr null, ptr %8, align 8, !tbaa !42
  %11 = load ptr, ptr %5, align 8, !tbaa !4
  %12 = call i32 @Py_IS_TYPE(ptr noundef %11, ptr noundef @PyODict_Type)
  %13 = icmp ne i32 %12, 0
  br i1 %13, label %14, label %37

14:                                               ; preds = %3
  %15 = load ptr, ptr %5, align 8, !tbaa !4
  %16 = load ptr, ptr %6, align 8, !tbaa !42
  %17 = call ptr @PyDict_GetItemWithError(ptr noundef %15, ptr noundef %16)
  store ptr %17, ptr %8, align 8, !tbaa !42
  %18 = load ptr, ptr %8, align 8, !tbaa !42
  %19 = icmp eq ptr %18, null
  br i1 %19, label %20, label %34

20:                                               ; preds = %14
  %21 = call ptr @PyErr_Occurred()
  %22 = icmp ne ptr %21, null
  br i1 %22, label %23, label %24

23:                                               ; preds = %20
  store ptr null, ptr %4, align 8
  store i32 1, ptr %9, align 4
  br label %68

24:                                               ; preds = %20
  %25 = load ptr, ptr %5, align 8, !tbaa !4
  %26 = load ptr, ptr %6, align 8, !tbaa !42
  %27 = load ptr, ptr %7, align 8, !tbaa !42
  %28 = call i32 @PyODict_SetItem(ptr noundef %25, ptr noundef %26, ptr noundef %27)
  %29 = icmp sge i32 %28, 0
  br i1 %29, label %30, label %33

30:                                               ; preds = %24
  %31 = load ptr, ptr %7, align 8, !tbaa !42
  %32 = call ptr @_Py_NewRef(ptr noundef %31)
  store ptr %32, ptr %8, align 8, !tbaa !42
  br label %33

33:                                               ; preds = %30, %24
  br label %36

34:                                               ; preds = %14
  %35 = load ptr, ptr %8, align 8, !tbaa !42
  call void @Py_INCREF(ptr noundef %35)
  br label %36

36:                                               ; preds = %34, %33
  br label %66

37:                                               ; preds = %3
  call void @llvm.lifetime.start.p0(i64 4, ptr %10) #7
  %38 = load ptr, ptr %5, align 8, !tbaa !4
  %39 = load ptr, ptr %6, align 8, !tbaa !42
  %40 = call i32 @PySequence_Contains(ptr noundef %38, ptr noundef %39)
  store i32 %40, ptr %10, align 4, !tbaa !43
  %41 = load i32, ptr %10, align 4, !tbaa !43
  %42 = icmp slt i32 %41, 0
  br i1 %42, label %43, label %44

43:                                               ; preds = %37
  store ptr null, ptr %4, align 8
  store i32 1, ptr %9, align 4
  br label %63

44:                                               ; preds = %37
  %45 = load i32, ptr %10, align 4, !tbaa !43
  %46 = icmp ne i32 %45, 0
  br i1 %46, label %47, label %51

47:                                               ; preds = %44
  %48 = load ptr, ptr %5, align 8, !tbaa !4
  %49 = load ptr, ptr %6, align 8, !tbaa !42
  %50 = call ptr @PyObject_GetItem(ptr noundef %48, ptr noundef %49)
  store ptr %50, ptr %8, align 8, !tbaa !42
  br label %61

51:                                               ; preds = %44
  %52 = load ptr, ptr %5, align 8, !tbaa !4
  %53 = load ptr, ptr %6, align 8, !tbaa !42
  %54 = load ptr, ptr %7, align 8, !tbaa !42
  %55 = call i32 @PyObject_SetItem(ptr noundef %52, ptr noundef %53, ptr noundef %54)
  %56 = icmp sge i32 %55, 0
  br i1 %56, label %57, label %60

57:                                               ; preds = %51
  %58 = load ptr, ptr %7, align 8, !tbaa !42
  %59 = call ptr @_Py_NewRef(ptr noundef %58)
  store ptr %59, ptr %8, align 8, !tbaa !42
  br label %60

60:                                               ; preds = %57, %51
  br label %61

61:                                               ; preds = %60, %47
  br label %62

62:                                               ; preds = %61
  store i32 0, ptr %9, align 4
  br label %63

63:                                               ; preds = %62, %43
  call void @llvm.lifetime.end.p0(i64 4, ptr %10) #7
  %64 = load i32, ptr %9, align 4
  switch i32 %64, label %68 [
    i32 0, label %65
  ]

65:                                               ; preds = %63
  br label %66

66:                                               ; preds = %65, %36
  %67 = load ptr, ptr %8, align 8, !tbaa !42
  store ptr %67, ptr %4, align 8
  store i32 1, ptr %9, align 4
  br label %68

68:                                               ; preds = %66, %63, %23
  call void @llvm.lifetime.end.p0(i64 8, ptr %8) #7
  %69 = load ptr, ptr %4, align 8
  ret ptr %69
}

; Function Attrs: inlinehint nounwind uwtable
define internal i64 @PyTuple_GET_SIZE(ptr noundef %0) #3 {
  %2 = alloca ptr, align 8
  %3 = alloca ptr, align 8
  store ptr %0, ptr %2, align 8, !tbaa !42
  call void @llvm.lifetime.start.p0(i64 8, ptr %3) #7
  %4 = load ptr, ptr %2, align 8, !tbaa !42
  store ptr %4, ptr %3, align 8, !tbaa !44
  %5 = load ptr, ptr %3, align 8, !tbaa !44
  %6 = call i64 @Py_SIZE(ptr noundef %5)
  call void @llvm.lifetime.end.p0(i64 8, ptr %3) #7
  ret i64 %6
}

; Function Attrs: nounwind uwtable
define internal ptr @OrderedDict_setdefault(ptr noundef %0, ptr noundef %1, i64 noundef %2, ptr noundef %3) #0 {
  %5 = alloca ptr, align 8
  %6 = alloca ptr, align 8
  %7 = alloca i64, align 8
  %8 = alloca ptr, align 8
  %9 = alloca ptr, align 8
  %10 = alloca [2 x ptr], align 16
  %11 = alloca i64, align 8
  %12 = alloca ptr, align 8
  %13 = alloca ptr, align 8
  store ptr %0, ptr %5, align 8, !tbaa !42
  store ptr %1, ptr %6, align 8, !tbaa !53
  store i64 %2, ptr %7, align 8, !tbaa !55
  store ptr %3, ptr %8, align 8, !tbaa !42
  call void @llvm.lifetime.start.p0(i64 8, ptr %9) #7
  store ptr null, ptr %9, align 8, !tbaa !42
  call void @llvm.lifetime.start.p0(i64 16, ptr %10) #7
  call void @llvm.lifetime.start.p0(i64 8, ptr %11) #7
  %14 = load i64, ptr %7, align 8, !tbaa !55
  %15 = load ptr, ptr %8, align 8, !tbaa !42
  %16 = icmp ne ptr %15, null
  br i1 %16, label %17, label %20

17:                                               ; preds = %4
  %18 = load ptr, ptr %8, align 8, !tbaa !42
  %19 = call i64 @PyTuple_GET_SIZE(ptr noundef %18)
  br label %21

20:                                               ; preds = %4
  br label %21

21:                                               ; preds = %20, %17
  %22 = phi i64 [ %19, %17 ], [ 0, %20 ]
  %23 = add i64 %14, %22
  %24 = sub i64 %23, 1
  store i64 %24, ptr %11, align 8, !tbaa !55
  call void @llvm.lifetime.start.p0(i64 8, ptr %12) #7
  call void @llvm.lifetime.start.p0(i64 8, ptr %13) #7
  store ptr @_Py_NoneStruct, ptr %13, align 8, !tbaa !42
  %25 = load ptr, ptr %8, align 8, !tbaa !42
  %26 = icmp eq ptr %25, null
  br i1 %26, label %27, label %38

27:                                               ; preds = %21
  %28 = load i64, ptr %7, align 8, !tbaa !55
  %29 = icmp sle i64 1, %28
  br i1 %29, label %30, label %38

30:                                               ; preds = %27
  %31 = load i64, ptr %7, align 8, !tbaa !55
  %32 = icmp sle i64 %31, 2
  br i1 %32, label %33, label %38

33:                                               ; preds = %30
  %34 = load ptr, ptr %6, align 8, !tbaa !53
  %35 = icmp ne ptr %34, null
  br i1 %35, label %36, label %38

36:                                               ; preds = %33
  %37 = load ptr, ptr %6, align 8, !tbaa !53
  br label %44

38:                                               ; preds = %33, %30, %27, %21
  %39 = load ptr, ptr %6, align 8, !tbaa !53
  %40 = load i64, ptr %7, align 8, !tbaa !55
  %41 = load ptr, ptr %8, align 8, !tbaa !42
  %42 = getelementptr inbounds [2 x ptr], ptr %10, i64 0, i64 0
  %43 = call ptr @_PyArg_UnpackKeywords(ptr noundef %39, i64 noundef %40, ptr noundef null, ptr noundef %41, ptr noundef @OrderedDict_setdefault._parser, i32 noundef 1, i32 noundef 2, i32 noundef 0, i32 noundef 0, ptr noundef %42)
  br label %44

44:                                               ; preds = %38, %36
  %45 = phi ptr [ %37, %36 ], [ %43, %38 ]
  store ptr %45, ptr %6, align 8, !tbaa !53
  %46 = load ptr, ptr %6, align 8, !tbaa !53
  %47 = icmp ne ptr %46, null
  br i1 %47, label %49, label %48

48:                                               ; preds = %44
  br label %65

49:                                               ; preds = %44
  %50 = load ptr, ptr %6, align 8, !tbaa !53
  %51 = getelementptr ptr, ptr %50, i64 0
  %52 = load ptr, ptr %51, align 8, !tbaa !42
  store ptr %52, ptr %12, align 8, !tbaa !42
  %53 = load i64, ptr %11, align 8, !tbaa !55
  %54 = icmp ne i64 %53, 0
  br i1 %54, label %56, label %55

55:                                               ; preds = %49
  br label %60

56:                                               ; preds = %49
  %57 = load ptr, ptr %6, align 8, !tbaa !53
  %58 = getelementptr ptr, ptr %57, i64 1
  %59 = load ptr, ptr %58, align 8, !tbaa !42
  store ptr %59, ptr %13, align 8, !tbaa !42
  br label %60

60:                                               ; preds = %56, %55
  %61 = load ptr, ptr %5, align 8, !tbaa !42
  %62 = load ptr, ptr %12, align 8, !tbaa !42
  %63 = load ptr, ptr %13, align 8, !tbaa !42
  %64 = call ptr @OrderedDict_setdefault_impl(ptr noundef %61, ptr noundef %62, ptr noundef %63)
  store ptr %64, ptr %9, align 8, !tbaa !42
  br label %65

65:                                               ; preds = %60, %48
  %66 = load ptr, ptr %9, align 8, !tbaa !42
  call void @llvm.lifetime.end.p0(i64 8, ptr %13) #7
  call void @llvm.lifetime.end.p0(i64 8, ptr %12) #7
  call void @llvm.lifetime.end.p0(i64 8, ptr %11) #7
  call void @llvm.lifetime.end.p0(i64 16, ptr %10) #7
  call void @llvm.lifetime.end.p0(i64 8, ptr %9) #7
  ret ptr %66
}