; Function Attrs: nounwind uwtable
define internal ptr @OrderedDict_setdefault(ptr noundef %0, ptr noundef %1, i64 noundef %2, ptr noundef %3) #0 {
  %5 = alloca [2 x ptr], align 16
  call void @llvm.lifetime.start.p0(i64 16, ptr nonnull %5) #8
  %.not = icmp eq ptr %3, null
  br i1 %.not, label %8, label %.thread

.thread:                                          ; preds = %4
  %6 = getelementptr i8, ptr %3, i64 16
  %.val = load i64, ptr %6, align 8, !tbaa !146
  %7 = add i64 %.val, %2
  br label %12

8:                                                ; preds = %4
  %9 = add i64 %2, -1
  %10 = icmp ult i64 %9, 2
  %11 = icmp ne ptr %1, null
  %or.cond5 = and i1 %11, %10
  br i1 %or.cond5, label %.thread31, label %12

12:                                               ; preds = %8, %.thread
  %13 = phi i64 [ %7, %.thread ], [ %2, %8 ]
  %14 = call ptr @_PyArg_UnpackKeywords(ptr noundef %1, i64 noundef %2, ptr noundef null, ptr noundef %3, ptr noundef nonnull @OrderedDict_setdefault._parser, i32 noundef 1, i32 noundef 2, i32 noundef 0, i32 noundef 0, ptr noundef nonnull %5) #8
  %.not27 = icmp eq ptr %14, null
  br i1 %.not27, label %OrderedDict_setdefault_impl.exit, label %.thread31

.thread31:                                        ; preds = %8, %12
  %15 = phi ptr [ %14, %12 ], [ %1, %8 ]
  %16 = phi i64 [ %13, %12 ], [ %2, %8 ]
  %17 = load ptr, ptr %15, align 8, !tbaa !53
  %.not28 = icmp eq i64 %16, 1
  br i1 %.not28, label %21, label %18

18:                                               ; preds = %.thread31
  %19 = getelementptr i8, ptr %15, i64 8
  %20 = load ptr, ptr %19, align 8, !tbaa !53
  br label %21

21:                                               ; preds = %.thread31, %18
  %.0 = phi ptr [ %20, %18 ], [ @_Py_NoneStruct, %.thread31 ]
  %22 = getelementptr i8, ptr %0, i64 8
  %.val.i = load ptr, ptr %22, align 8, !tbaa !20
  %.not.i = icmp eq ptr %.val.i, @PyODict_Type
  br i1 %.not.i, label %23, label %43

23:                                               ; preds = %21
  %24 = call ptr @PyDict_GetItemWithError(ptr noundef nonnull %0, ptr noundef %17) #8
  %25 = icmp eq ptr %24, null
  br i1 %25, label %26, label %38

26:                                               ; preds = %23
  %27 = call ptr @PyErr_Occurred() #8
  %.not27.i = icmp eq ptr %27, null
  br i1 %.not27.i, label %28, label %OrderedDict_setdefault_impl.exit

28:                                               ; preds = %26
  %29 = call i64 @PyObject_Hash(ptr noundef %17) #8
  %30 = icmp eq i64 %29, -1
  br i1 %30, label %OrderedDict_setdefault_impl.exit, label %PyODict_SetItem.exit.i

PyODict_SetItem.exit.i:                           ; preds = %28
  %31 = call fastcc i32 @_PyODict_SetItem_KnownHash(ptr noundef nonnull %0, ptr noundef %17, ptr noundef %.0, i64 noundef %29)
  %32 = icmp sgt i32 %31, -1
  br i1 %32, label %33, label %OrderedDict_setdefault_impl.exit

33:                                               ; preds = %PyODict_SetItem.exit.i
  %34 = load i32, ptr %.0, align 8, !tbaa !38
  %35 = icmp slt i32 %34, 0
  br i1 %35, label %OrderedDict_setdefault_impl.exit, label %36

36:                                               ; preds = %33
  %37 = add nuw i32 %34, 1
  store i32 %37, ptr %.0, align 8, !tbaa !38
  br label %OrderedDict_setdefault_impl.exit

38:                                               ; preds = %23
  %39 = load i32, ptr %24, align 8, !tbaa !38
  %40 = icmp slt i32 %39, 0
  br i1 %40, label %OrderedDict_setdefault_impl.exit, label %41

41:                                               ; preds = %38
  %42 = add nuw i32 %39, 1
  store i32 %42, ptr %24, align 8, !tbaa !38
  br label %OrderedDict_setdefault_impl.exit

43:                                               ; preds = %21
  %44 = call i32 @PySequence_Contains(ptr noundef nonnull %0, ptr noundef %17) #8
  %45 = icmp sgt i32 %44, -1
  br i1 %45, label %46, label %OrderedDict_setdefault_impl.exit

46:                                               ; preds = %43
  %.not26.i = icmp eq i32 %44, 0
  br i1 %.not26.i, label %49, label %47

47:                                               ; preds = %46
  %48 = call ptr @PyObject_GetItem(ptr noundef nonnull %0, ptr noundef %17) #8
  br label %OrderedDict_setdefault_impl.exit

49:                                               ; preds = %46
  %50 = call i32 @PyObject_SetItem(ptr noundef nonnull %0, ptr noundef %17, ptr noundef %.0) #8
  %51 = icmp sgt i32 %50, -1
  br i1 %51, label %52, label %OrderedDict_setdefault_impl.exit

52:                                               ; preds = %49
  %53 = load i32, ptr %.0, align 8, !tbaa !38
  %54 = icmp slt i32 %53, 0
  br i1 %54, label %OrderedDict_setdefault_impl.exit, label %55

55:                                               ; preds = %52
  %56 = add nuw i32 %53, 1
  store i32 %56, ptr %.0, align 8, !tbaa !38
  br label %OrderedDict_setdefault_impl.exit

OrderedDict_setdefault_impl.exit:                 ; preds = %55, %52, %49, %47, %43, %41, %38, %36, %33, %PyODict_SetItem.exit.i, %28, %26, %12
  %.023 = phi ptr [ null, %12 ], [ null, %26 ], [ null, %PyODict_SetItem.exit.i ], [ %.0, %33 ], [ %.0, %36 ], [ %24, %38 ], [ %24, %41 ], [ null, %28 ], [ null, %43 ], [ %48, %47 ], [ null, %49 ], [ %.0, %52 ], [ %.0, %55 ]
  call void @llvm.lifetime.end.p0(i64 16, ptr nonnull %5) #8
  ret ptr %.023
}